; Function Attrs: nounwind uwtable
define internal range(i32 0, 2) i32 @dh_set_peer(ptr noundef captures(address_is_null) %0, ptr noundef %1) #0 {
  %3 = tail call i32 @ossl_prov_is_running() #7
  %4 = icmp eq i32 %3, 0
  %5 = icmp eq ptr %0, null
  %or.cond = or i1 %5, %4
  %6 = icmp eq ptr %1, null
  %or.cond3 = or i1 %6, %or.cond
  br i1 %or.cond3, label %20, label %7

7:                                                ; preds = %2
  %8 = getelementptr inbounds nuw i8, ptr %0, i64 8
  %9 = load ptr, ptr %8, align 8, !tbaa !15
  %10 = tail call ptr @ossl_dh_get0_params(ptr noundef nonnull %1) #7
  %11 = tail call ptr @ossl_dh_get0_params(ptr noundef %9) #7
  %12 = icmp ne ptr %10, null
  %13 = icmp ne ptr %11, null
  %or.cond.i = select i1 %12, i1 %13, i1 false
  br i1 %or.cond.i, label %14, label %dh_match_params.exit.thread

14:                                               ; preds = %7
  %15 = tail call i32 @ossl_ffc_params_cmp(ptr noundef nonnull %10, ptr noundef nonnull %11, i32 noundef 1) #7
  %.not.i = icmp eq i32 %15, 0
  br i1 %.not.i, label %dh_match_params.exit.thread, label %dh_match_params.exit

dh_match_params.exit.thread:                      ; preds = %7, %14
  tail call void @ERR_new() #7
  tail call void @ERR_set_debug(ptr noundef nonnull @.str, i32 noundef 156, ptr noundef nonnull @__func__.dh_match_params) #7
  tail call void (i32, i32, ptr, ...) @ERR_set_error(i32 noundef 57, i32 noundef 203, ptr noundef null) #7
  br label %20

dh_match_params.exit:                             ; preds = %14
  %16 = tail call i32 @DH_up_ref(ptr noundef nonnull %1) #7
  %.not14 = icmp eq i32 %16, 0
  br i1 %.not14, label %20, label %17

17:                                               ; preds = %dh_match_params.exit
  %18 = getelementptr inbounds nuw i8, ptr %0, i64 16
  %19 = load ptr, ptr %18, align 8, !tbaa !18
  tail call void @DH_free(ptr noundef %19) #7
  store ptr %1, ptr %18, align 8, !tbaa !18
  br label %20

20:                                               ; preds = %dh_match_params.exit.thread, %2, %dh_match_params.exit, %17
  %.0 = phi i32 [ 1, %17 ], [ 0, %dh_match_params.exit ], [ 0, %2 ], [ 0, %dh_match_params.exit.thread ]
  ret i32 %.0
}